target datalayout = "e-m:e-p270:32:32-p271:32:32-p272:64:64-i64:64-i128:128-f80:128-n8:16:32:64-S128"
target triple = "x86_64-pc-linux-gnu"

%struct.ident_t = type { i32, i32, i32, i32, ptr }

@1 = private unnamed_addr constant %struct.ident_t { i32 0, i32 514, i32 0, i32 22, ptr @0 }, align 8

; Function Attrs: inlinehint nounwind uwtable
define internal i32 @extractBit(i32 noundef %0, i64 noundef %1) #7 {
  %3 = alloca i32, align 4
  %4 = alloca i64, align 8
  store i32 %0, ptr %3, align 4, !tbaa !8
  store i64 %1, ptr %4, align 8, !tbaa !4
  %5 = load i64, ptr %4, align 8, !tbaa !4
  %6 = load i32, ptr %3, align 4, !tbaa !8
  %7 = zext i32 %6 to i64
  %8 = shl i64 1, %7
  %9 = and i64 %5, %8
  %10 = load i32, ptr %3, align 4, !tbaa !8
  %11 = zext i32 %10 to i64
  %12 = ashr i64 %9, %11
  %13 = trunc i64 %12 to i32
  ret i32 %13
}

; Function Attrs: alwaysinline norecurse nounwind uwtable
define internal void @statevec_controlledPhaseFlip.omp_outlined(ptr noalias noundef %0, ptr noalias noundef %1, ptr noundef nonnull align 8 dereferenceable(8) %2, ptr noundef nonnull align 4 dereferenceable(4) %3, ptr noundef nonnull align 8 dereferenceable(8) %4, ptr noundef nonnull align 8 dereferenceable(8) %5, ptr noundef nonnull align 4 dereferenceable(4) %6, ptr noundef nonnull align 8 dereferenceable(8) %7, ptr noundef nonnull align 8 dereferenceable(8) %8) #2 {
  %10 = alloca ptr, align 8
  %11 = alloca ptr, align 8
  %12 = alloca ptr, align 8
  %13 = alloca ptr, align 8
  %14 = alloca ptr, align 8
  %15 = alloca ptr, align 8
  %16 = alloca ptr, align 8
  %17 = alloca ptr, align 8
  %18 = alloca ptr, align 8
  %19 = alloca i64, align 8
  %20 = alloca i64, align 8
  %21 = alloca i64, align 8
  %22 = alloca i64, align 8
  %23 = alloca i64, align 8
  %24 = alloca i64, align 8
  %25 = alloca i64, align 8
  %26 = alloca i32, align 4
  %27 = alloca i64, align 8
  %28 = alloca i32, align 4
  %29 = alloca i32, align 4
  store ptr %0, ptr %10, align 8, !tbaa !19
  store ptr %1, ptr %11, align 8, !tbaa !19
  store ptr %2, ptr %12, align 8, !tbaa !21
  store ptr %3, ptr %13, align 8, !tbaa !19
  store ptr %4, ptr %14, align 8, !tbaa !21
  store ptr %5, ptr %15, align 8, !tbaa !21
  store ptr %6, ptr %16, align 8, !tbaa !19
  store ptr %7, ptr %17, align 8, !tbaa !33
  store ptr %8, ptr %18, align 8, !tbaa !33
  %30 = load ptr, ptr %12, align 8, !tbaa !21
  %31 = load ptr, ptr %13, align 8, !tbaa !19
  %32 = load ptr, ptr %14, align 8, !tbaa !21
  %33 = load ptr, ptr %15, align 8, !tbaa !21
  %34 = load ptr, ptr %16, align 8, !tbaa !19
  %35 = load ptr, ptr %17, align 8, !tbaa !33
  %36 = load ptr, ptr %18, align 8, !tbaa !33
  call void @llvm.lifetime.start.p0(i64 8, ptr %19) #3
  call void @llvm.lifetime.start.p0(i64 8, ptr %20) #3
  %37 = load i64, ptr %30, align 8, !tbaa !4
  store i64 %37, ptr %20, align 8, !tbaa !4
  call void @llvm.lifetime.start.p0(i64 8, ptr %21) #3
  %38 = load i64, ptr %20, align 8, !tbaa !4
  %39 = sub nsw i64 %38, 0
  %40 = sdiv i64 %39, 1
  %41 = sub nsw i64 %40, 1
  store i64 %41, ptr %21, align 8, !tbaa !4
  call void @llvm.lifetime.start.p0(i64 8, ptr %22) #3
  store i64 0, ptr %22, align 8, !tbaa !4
  call void @llvm.lifetime.end.p0(i64 8, ptr %22) #3
  %42 = load i64, ptr %20, align 8, !tbaa !4
  %43 = icmp slt i64 0, %42
  br i1 %43, label %44, label %112

44:                                               ; preds = %9
  call void @llvm.lifetime.start.p0(i64 8, ptr %23) #3
  store i64 0, ptr %23, align 8, !tbaa !4
  call void @llvm.lifetime.start.p0(i64 8, ptr %24) #3
  %45 = load i64, ptr %21, align 8, !tbaa !4
  store i64 %45, ptr %24, align 8, !tbaa !4
  call void @llvm.lifetime.start.p0(i64 8, ptr %25) #3
  store i64 1, ptr %25, align 8, !tbaa !4
  call void @llvm.lifetime.start.p0(i64 4, ptr %26) #3
  store i32 0, ptr %26, align 4, !tbaa !8
  call void @llvm.lifetime.start.p0(i64 8, ptr %27) #3
  call void @llvm.lifetime.start.p0(i64 4, ptr %28) #3
  call void @llvm.lifetime.start.p0(i64 4, ptr %29) #3
  %46 = load ptr, ptr %10, align 8
  %47 = load i32, ptr %46, align 4, !tbaa !8
  call void @__kmpc_for_static_init_8(ptr @1, i32 %47, i32 34, ptr %26, ptr %23, ptr %24, ptr %25, i64 1, i64 1)
  %48 = load i64, ptr %24, align 8, !tbaa !4
  %49 = load i64, ptr %21, align 8, !tbaa !4
  %50 = icmp sgt i64 %48, %49
  br i1 %50, label %51, label %53

51:                                               ; preds = %44
  %52 = load i64, ptr %21, align 8, !tbaa !4
  br label %55

53:                                               ; preds = %44
  %54 = load i64, ptr %24, align 8, !tbaa !4
  br label %55

55:                                               ; preds = %53, %51
  %56 = phi i64 [ %52, %51 ], [ %54, %53 ]
  store i64 %56, ptr %24, align 8, !tbaa !4
  %57 = load i64, ptr %23, align 8, !tbaa !4
  store i64 %57, ptr %19, align 8, !tbaa !4
  br label %58

58:                                               ; preds = %105, %55
  %59 = load i64, ptr %19, align 8, !tbaa !4
  %60 = load i64, ptr %24, align 8, !tbaa !4
  %61 = icmp sle i64 %59, %60
  br i1 %61, label %63, label %62

62:                                               ; preds = %58
  br label %108

63:                                               ; preds = %58
  %64 = load i64, ptr %19, align 8, !tbaa !4
  %65 = mul nsw i64 %64, 1
  %66 = add nsw i64 0, %65
  store i64 %66, ptr %27, align 8, !tbaa !4
  %67 = load i32, ptr %31, align 4, !tbaa !8
  %68 = load i64, ptr %27, align 8, !tbaa !4
  %69 = load i64, ptr %32, align 8, !tbaa !4
  %70 = load i64, ptr %33, align 8, !tbaa !4
  %71 = mul nsw i64 %69, %70
  %72 = add nsw i64 %68, %71
  %73 = call i32 @extractBit(i32 noundef %67, i64 noundef %72)
  store i32 %73, ptr %28, align 4, !tbaa !8
  %74 = load i32, ptr %34, align 4, !tbaa !8
  %75 = load i64, ptr %27, align 8, !tbaa !4
  %76 = load i64, ptr %32, align 8, !tbaa !4
  %77 = load i64, ptr %33, align 8, !tbaa !4
  %78 = mul nsw i64 %76, %77
  %79 = add nsw i64 %75, %78
  %80 = call i32 @extractBit(i32 noundef %74, i64 noundef %79)
  store i32 %80, ptr %29, align 4, !tbaa !8
  %81 = load i32, ptr %28, align 4, !tbaa !8
  %82 = icmp ne i32 %81, 0
  br i1 %82, label %83, label %103

83:                                               ; preds = %63
  %84 = load i32, ptr %29, align 4, !tbaa !8
  %85 = icmp ne i32 %84, 0
  br i1 %85, label %86, label %103

86:                                               ; preds = %83
  %87 = load ptr, ptr %35, align 8, !tbaa !25
  %88 = load i64, ptr %27, align 8, !tbaa !4
  %89 = getelementptr inbounds double, ptr %87, i64 %88
  %90 = load double, ptr %89, align 8, !tbaa !10
  %91 = fneg double %90
  %92 = load ptr, ptr %35, align 8, !tbaa !25
  %93 = load i64, ptr %27, align 8, !tbaa !4
  %94 = getelementptr inbounds double, ptr %92, i64 %93
  store double %91, ptr %94, align 8, !tbaa !10
  %95 = load ptr, ptr %36, align 8, !tbaa !25
  %96 = load i64, ptr %27, align 8, !tbaa !4
  %97 = getelementptr inbounds double, ptr %95, i64 %96
  %98 = load double, ptr %97, align 8, !tbaa !10
  %99 = fneg double %98
  %100 = load ptr, ptr %36, align 8, !tbaa !25
  %101 = load i64, ptr %27, align 8, !tbaa !4
  %102 = getelementptr inbounds double, ptr %100, i64 %101
  store double %99, ptr %102, align 8, !tbaa !10
  br label %103

103:                                              ; preds = %86, %83, %63
  br label %104

104:                                              ; preds = %103
  br label %105

105:                                              ; preds = %104
  %106 = load i64, ptr %19, align 8, !tbaa !4
  %107 = add nsw i64 %106, 1
  store i64 %107, ptr %19, align 8, !tbaa !4
  br label %58

108:                                              ; preds = %62
  br label %109

109:                                              ; preds = %108
  %110 = load ptr, ptr %10, align 8
  %111 = load i32, ptr %110, align 4, !tbaa !8
  call void @__kmpc_for_static_fini(ptr @1, i32 %111)
  call void @llvm.lifetime.end.p0(i64 4, ptr %29) #3
  call void @llvm.lifetime.end.p0(i64 4, ptr %28) #3
  call void @llvm.lifetime.end.p0(i64 8, ptr %27) #3
  call void @llvm.lifetime.end.p0(i64 4, ptr %26) #3
  call void @llvm.lifetime.end.p0(i64 8, ptr %25) #3
  call void @llvm.lifetime.end.p0(i64 8, ptr %24) #3
  call void @llvm.lifetime.end.p0(i64 8, ptr %23) #3
  br label %112

112:                                              ; preds = %109, %9
  call void @llvm.lifetime.end.p0(i64 8, ptr %21) #3
  call void @llvm.lifetime.end.p0(i64 8, ptr %20) #3
  call void @llvm.lifetime.end.p0(i64 8, ptr %19) #3
  ret void
}