; Function Attrs: alwaysinline norecurse nounwind uwtable
define internal void @statevec_controlledPhaseFlip.omp_outlined(ptr noalias noundef readonly captures(none) %0, ptr noalias readnone captures(none) %1, ptr noundef nonnull readonly align 8 captures(none) dereferenceable(8) %2, ptr noundef nonnull readonly align 4 captures(none) dereferenceable(4) %3, ptr noundef nonnull readonly align 8 captures(none) dereferenceable(8) %4, ptr noundef nonnull readonly align 8 captures(none) dereferenceable(8) %5, ptr noundef nonnull readonly align 4 captures(none) dereferenceable(4) %6, ptr noundef nonnull readonly align 8 captures(none) dereferenceable(8) %7, ptr noundef nonnull readonly align 8 captures(none) dereferenceable(8) %8) #3 {
  %10 = alloca i64, align 8
  %11 = alloca i64, align 8
  %12 = alloca i64, align 8
  %13 = alloca i32, align 4
  %14 = load i64, ptr %2, align 8, !tbaa !16
  %15 = icmp sgt i64 %14, 0
  br i1 %15, label %16, label %52

16:                                               ; preds = %9
  %17 = add nsw i64 %14, -1
  call void @llvm.lifetime.start.p0(i64 8, ptr nonnull %10) #4
  store i64 0, ptr %10, align 8, !tbaa !16
  call void @llvm.lifetime.start.p0(i64 8, ptr nonnull %11) #4
  store i64 %17, ptr %11, align 8, !tbaa !16
  call void @llvm.lifetime.start.p0(i64 8, ptr nonnull %12) #4
  store i64 1, ptr %12, align 8, !tbaa !16
  call void @llvm.lifetime.start.p0(i64 4, ptr nonnull %13) #4
  store i32 0, ptr %13, align 4, !tbaa !18
  %18 = load i32, ptr %0, align 4, !tbaa !18
  call void @__kmpc_for_static_init_8(ptr nonnull @1, i32 %18, i32 34, ptr nonnull %13, ptr nonnull %10, ptr nonnull %11, ptr nonnull %12, i64 1, i64 1)
  %19 = load i64, ptr %11, align 8, !tbaa !16
  %20 = call i64 @llvm.smin.i64(i64 %19, i64 %17)
  store i64 %20, ptr %11, align 8, !tbaa !16
  %21 = load i64, ptr %10, align 8, !tbaa !16
  %.not25 = icmp sgt i64 %21, %20
  br i1 %.not25, label %._crit_edge, label %.lr.ph

.lr.ph:                                           ; preds = %16
  %22 = load i32, ptr %3, align 4, !tbaa !18
  %23 = load i64, ptr %4, align 8, !tbaa !16
  %24 = load i64, ptr %5, align 8, !tbaa !16
  %25 = mul nsw i64 %24, %23
  %26 = zext i32 %22 to i64
  %27 = shl nuw i64 1, %26
  %28 = load i32, ptr %6, align 4, !tbaa !18
  %29 = zext i32 %28 to i64
  %30 = shl nuw i64 1, %29
  %31 = load ptr, ptr %7, align 8
  %32 = load ptr, ptr %8, align 8
  br label %33

33:                                               ; preds = %.lr.ph, %50
  %.026 = phi i64 [ %21, %.lr.ph ], [ %51, %50 ]
  %34 = add nsw i64 %25, %.026
  %35 = and i64 %34, %27
  %36 = ashr i64 %35, %26
  %37 = and i64 %30, %34
  %38 = ashr i64 %37, %29
  %39 = and i64 %36, 4294967295
  %40 = icmp ne i64 %39, 0
  %41 = and i64 %38, 4294967295
  %42 = icmp ne i64 %41, 0
  %or.cond = select i1 %40, i1 %42, i1 false
  br i1 %or.cond, label %43, label %50

43:                                               ; preds = %33
  %44 = getelementptr inbounds double, ptr %31, i64 %.026
  %45 = load double, ptr %44, align 8, !tbaa !4
  %46 = fneg double %45
  store double %46, ptr %44, align 8, !tbaa !4
  %47 = getelementptr inbounds double, ptr %32, i64 %.026
  %48 = load double, ptr %47, align 8, !tbaa !4
  %49 = fneg double %48
  store double %49, ptr %47, align 8, !tbaa !4
  br label %50

50:                                               ; preds = %43, %33
  %51 = add i64 %.026, 1
  %exitcond.not = icmp eq i64 %.026, %20
  br i1 %exitcond.not, label %._crit_edge, label %33

._crit_edge:                                      ; preds = %50, %16
  call void @__kmpc_for_static_fini(ptr nonnull @1, i32 %18)
  call void @llvm.lifetime.end.p0(i64 4, ptr nonnull %13) #4
  call void @llvm.lifetime.end.p0(i64 8, ptr nonnull %12) #4
  call void @llvm.lifetime.end.p0(i64 8, ptr nonnull %11) #4
  call void @llvm.lifetime.end.p0(i64 8, ptr nonnull %10) #4
  br label %52

52:                                               ; preds = %._crit_edge, %9
  ret void
}